target datalayout = "e-m:e-p270:32:32-p271:32:32-p272:64:64-i64:64-i128:128-f80:128-n8:16:32:64-S128"
target triple = "x86_64-unknown-linux-gnu"

%"class.std::__cxx11::basic_string" = type { %"struct.std::__cxx11::basic_string<char>::_Alloc_hider", i64, %union.anon }
%"struct.std::__cxx11::basic_string<char>::_Alloc_hider" = type { ptr }
%union.anon = type { i64, [8 x i8] }
%"struct.Imf_3_2::DeepTiledInputFile::Data" = type <{ %"class.std::mutex", %"class.Imf_3_2::Header", %"class.Imf_3_2::TileDescription", i32, [4 x i8], %"class.Imf_3_2::DeepFrameBuffer", i32, i32, i32, i32, i32, i32, i32, [4 x i8], ptr, ptr, %"class.Imf_3_2::TileOffsets", i8, [7 x i8], %"class.std::vector.11", i32, i8, [3 x i8], i32, [4 x i8], ptr, %"class.std::vector.16", i8, [7 x i8], ptr, i64, i64, i32, i32, %"class.Imf_3_2::Array", ptr, i64, i32, [4 x i8], ptr, i8, [7 x i8] }>
%"class.std::mutex" = type { %"class.std::__mutex_base" }
%"class.std::__mutex_base" = type { %union.pthread_mutex_t }
%union.pthread_mutex_t = type { %struct.__pthread_mutex_s }
%struct.__pthread_mutex_s = type { i32, i32, i32, i32, i32, i16, i16, %struct.__pthread_internal_list }
%struct.__pthread_internal_list = type { ptr, ptr }
%"class.Imf_3_2::Header" = type <{ %"class.std::map", i8, [7 x i8] }>
%"class.std::map" = type { %"class.std::_Rb_tree" }
%"class.std::_Rb_tree" = type { %"struct.std::_Rb_tree<Imf_3_2::Name, std::pair<const Imf_3_2::Name, Imf_3_2::Attribute *>, std::_Select1st<std::pair<const Imf_3_2::Name, Imf_3_2::Attribute *>>, std::less<Imf_3_2::Name>>::_Rb_tree_impl" }
%"struct.std::_Rb_tree<Imf_3_2::Name, std::pair<const Imf_3_2::Name, Imf_3_2::Attribute *>, std::_Select1st<std::pair<const Imf_3_2::Name, Imf_3_2::Attribute *>>, std::less<Imf_3_2::Name>>::_Rb_tree_impl" = type { %"struct.std::_Rb_tree_key_compare", %"struct.std::_Rb_tree_header" }
%"struct.std::_Rb_tree_key_compare" = type { %"struct.std::less" }
%"struct.std::less" = type { i8 }
%"struct.std::_Rb_tree_header" = type { %"struct.std::_Rb_tree_node_base", i64 }
%"struct.std::_Rb_tree_node_base" = type { i32, ptr, ptr, ptr }
%"class.Imf_3_2::TileDescription" = type { i32, i32, i32, i32 }
%"class.Imf_3_2::DeepFrameBuffer" = type { %"class.std::map.3", %"struct.Imf_3_2::Slice" }
%"class.std::map.3" = type { %"class.std::_Rb_tree.4" }
%"class.std::_Rb_tree.4" = type { %"struct.std::_Rb_tree<Imf_3_2::Name, std::pair<const Imf_3_2::Name, Imf_3_2::DeepSlice>, std::_Select1st<std::pair<const Imf_3_2::Name, Imf_3_2::DeepSlice>>, std::less<Imf_3_2::Name>>::_Rb_tree_impl" }
%"struct.std::_Rb_tree<Imf_3_2::Name, std::pair<const Imf_3_2::Name, Imf_3_2::DeepSlice>, std::_Select1st<std::pair<const Imf_3_2::Name, Imf_3_2::DeepSlice>>, std::less<Imf_3_2::Name>>::_Rb_tree_impl" = type { %"struct.std::_Rb_tree_key_compare", %"struct.std::_Rb_tree_header" }
%"struct.Imf_3_2::Slice" = type <{ i32, [4 x i8], ptr, i64, i64, i32, i32, double, i8, i8, [6 x i8] }>
%"class.Imf_3_2::TileOffsets" = type { i32, i32, i32, %"class.std::vector" }
%"class.std::vector" = type { %"struct.std::_Vector_base" }
%"struct.std::_Vector_base" = type { %"struct.std::_Vector_base<std::vector<std::vector<unsigned long>>, std::allocator<std::vector<std::vector<unsigned long>>>>::_Vector_impl" }
%"struct.std::_Vector_base<std::vector<std::vector<unsigned long>>, std::allocator<std::vector<std::vector<unsigned long>>>>::_Vector_impl" = type { %"struct.std::_Vector_base<std::vector<std::vector<unsigned long>>, std::allocator<std::vector<std::vector<unsigned long>>>>::_Vector_impl_data" }
%"struct.std::_Vector_base<std::vector<std::vector<unsigned long>>, std::allocator<std::vector<std::vector<unsigned long>>>>::_Vector_impl_data" = type { ptr, ptr, ptr }
%"class.std::vector.11" = type { %"struct.std::_Vector_base.12" }
%"struct.std::_Vector_base.12" = type { %"struct.std::_Vector_base<Imf_3_2::(anonymous namespace)::TInSliceInfo *, std::allocator<Imf_3_2::(anonymous namespace)::TInSliceInfo *>>::_Vector_impl" }
%"struct.std::_Vector_base<Imf_3_2::(anonymous namespace)::TInSliceInfo *, std::allocator<Imf_3_2::(anonymous namespace)::TInSliceInfo *>>::_Vector_impl" = type { %"struct.std::_Vector_base<Imf_3_2::(anonymous namespace)::TInSliceInfo *, std::allocator<Imf_3_2::(anonymous namespace)::TInSliceInfo *>>::_Vector_impl_data" }
%"struct.std::_Vector_base<Imf_3_2::(anonymous namespace)::TInSliceInfo *, std::allocator<Imf_3_2::(anonymous namespace)::TInSliceInfo *>>::_Vector_impl_data" = type { ptr, ptr, ptr }
%"class.std::vector.16" = type { %"struct.std::_Vector_base.17" }
%"struct.std::_Vector_base.17" = type { %"struct.std::_Vector_base<Imf_3_2::(anonymous namespace)::TileBuffer *, std::allocator<Imf_3_2::(anonymous namespace)::TileBuffer *>>::_Vector_impl" }
%"struct.std::_Vector_base<Imf_3_2::(anonymous namespace)::TileBuffer *, std::allocator<Imf_3_2::(anonymous namespace)::TileBuffer *>>::_Vector_impl" = type { %"struct.std::_Vector_base<Imf_3_2::(anonymous namespace)::TileBuffer *, std::allocator<Imf_3_2::(anonymous namespace)::TileBuffer *>>::_Vector_impl_data" }
%"struct.std::_Vector_base<Imf_3_2::(anonymous namespace)::TileBuffer *, std::allocator<Imf_3_2::(anonymous namespace)::TileBuffer *>>::_Vector_impl_data" = type { ptr, ptr, ptr }
%"class.Imf_3_2::Array" = type { i64, ptr }
%"struct.Imf_3_2::(anonymous namespace)::TileBuffer" = type { %"class.Imf_3_2::Array2D", ptr, ptr, i64, i64, ptr, i32, i32, i32, i32, i32, i8, %"class.std::__cxx11::basic_string", %"class.IlmThread_3_2::Semaphore" }
%"class.Imf_3_2::Array2D" = type { i64, i64, ptr }
%"class.IlmThread_3_2::Semaphore" = type { ptr, %union.sem_t }
%union.sem_t = type { i64, [24 x i8] }
%"struct.Imf_3_2::InputStreamMutex" = type { %"class.std::mutex", ptr, i64 }
%"class.Imf_3_2::DeepTiledInputFile" = type { %"class.Imf_3_2::GenericInputFile", ptr }
%"class.Imf_3_2::GenericInputFile" = type { ptr }

@_ZTVN7Imf_3_218DeepTiledInputFileE = unnamed_addr constant { [4 x ptr] } { [4 x ptr] [ptr null, ptr @_ZTIN7Imf_3_218DeepTiledInputFileE, ptr @_ZN7Imf_3_218DeepTiledInputFileD1Ev, ptr @_ZN7Imf_3_218DeepTiledInputFileD0Ev] }, align 8
@_ZN7Imf_3_218DeepTiledInputFile4DataD1Ev = unnamed_addr alias void (ptr), ptr @_ZN7Imf_3_218DeepTiledInputFile4DataD2Ev

; Function Attrs: mustprogress nounwind uwtable
define internal noundef nonnull align 8 dereferenceable(8) ptr @_ZNSt6vectorIPN7Imf_3_212_GLOBAL__N_110TileBufferESaIS3_EEixEm(ptr noundef nonnull align 8 dereferenceable(24) %this, i64 noundef %__n) #5 align 2 {
entry:
  %this.addr = alloca ptr, align 8
  %__n.addr = alloca i64, align 8
  store ptr %this, ptr %this.addr, align 8
  store i64 %__n, ptr %__n.addr, align 8
  %this1 = load ptr, ptr %this.addr, align 8
  %_M_impl = getelementptr inbounds %"struct.std::_Vector_base.17", ptr %this1, i32 0, i32 0
  %_M_start = getelementptr inbounds %"struct.std::_Vector_base<Imf_3_2::(anonymous namespace)::TileBuffer *, std::allocator<Imf_3_2::(anonymous namespace)::TileBuffer *>>::_Vector_impl_data", ptr %_M_impl, i32 0, i32 0
  %0 = load ptr, ptr %_M_start, align 8
  %1 = load i64, ptr %__n.addr, align 8
  %add.ptr = getelementptr inbounds ptr, ptr %0, i64 %1
  ret ptr %add.ptr
}

; Function Attrs: mustprogress nounwind uwtable
define internal noundef i64 @_ZNKSt6vectorIPN7Imf_3_212_GLOBAL__N_110TileBufferESaIS3_EE4sizeEv(ptr noundef nonnull align 8 dereferenceable(24) %this) #5 align 2 {
entry:
  %this.addr = alloca ptr, align 8
  store ptr %this, ptr %this.addr, align 8
  %this1 = load ptr, ptr %this.addr, align 8
  %_M_impl = getelementptr inbounds %"struct.std::_Vector_base.17", ptr %this1, i32 0, i32 0
  %_M_finish = getelementptr inbounds %"struct.std::_Vector_base<Imf_3_2::(anonymous namespace)::TileBuffer *, std::allocator<Imf_3_2::(anonymous namespace)::TileBuffer *>>::_Vector_impl_data", ptr %_M_impl, i32 0, i32 1
  %0 = load ptr, ptr %_M_finish, align 8
  %_M_impl2 = getelementptr inbounds %"struct.std::_Vector_base.17", ptr %this1, i32 0, i32 0
  %_M_start = getelementptr inbounds %"struct.std::_Vector_base<Imf_3_2::(anonymous namespace)::TileBuffer *, std::allocator<Imf_3_2::(anonymous namespace)::TileBuffer *>>::_Vector_impl_data", ptr %_M_impl2, i32 0, i32 0
  %1 = load ptr, ptr %_M_start, align 8
  %sub.ptr.lhs.cast = ptrtoint ptr %0 to i64
  %sub.ptr.rhs.cast = ptrtoint ptr %1 to i64
  %sub.ptr.sub = sub i64 %sub.ptr.lhs.cast, %sub.ptr.rhs.cast
  %sub.ptr.div = sdiv exact i64 %sub.ptr.sub, 8
  ret i64 %sub.ptr.div
}

; Function Attrs: mustprogress nounwind uwtable
define void @_ZN7Imf_3_218DeepTiledInputFileD2Ev(ptr noundef nonnull align 8 dereferenceable(16) %this) unnamed_addr #5 align 2 {
entry:
  %this.addr = alloca ptr, align 8
  %i = alloca i64, align 8
  store ptr %this, ptr %this.addr, align 8
  %this1 = load ptr, ptr %this.addr, align 8
  store ptr getelementptr inbounds ({ [4 x ptr] }, ptr @_ZTVN7Imf_3_218DeepTiledInputFileE, i32 0, i32 0, i32 2), ptr %this1, align 8
  %_data = getelementptr inbounds %"class.Imf_3_2::DeepTiledInputFile", ptr %this1, i32 0, i32 1
  %0 = load ptr, ptr %_data, align 8
  %memoryMapped = getelementptr inbounds %"struct.Imf_3_2::DeepTiledInputFile::Data", ptr %0, i32 0, i32 27
  %1 = load i8, ptr %memoryMapped, align 8
  %tobool = trunc i8 %1 to i1
  br i1 %tobool, label %if.end12, label %if.then

if.then:                                          ; preds = %entry
  store i64 0, ptr %i, align 8
  br label %for.cond

for.cond:                                         ; preds = %for.inc, %if.then
  %2 = load i64, ptr %i, align 8
  %_data2 = getelementptr inbounds %"class.Imf_3_2::DeepTiledInputFile", ptr %this1, i32 0, i32 1
  %3 = load ptr, ptr %_data2, align 8
  %tileBuffers = getelementptr inbounds %"struct.Imf_3_2::DeepTiledInputFile::Data", ptr %3, i32 0, i32 26
  %call = call noundef i64 @_ZNKSt6vectorIPN7Imf_3_212_GLOBAL__N_110TileBufferESaIS3_EE4sizeEv(ptr noundef nonnull align 8 dereferenceable(24) %tileBuffers) #3
  %cmp = icmp ult i64 %2, %call
  br i1 %cmp, label %for.body, label %for.end

for.body:                                         ; preds = %for.cond
  %_data3 = getelementptr inbounds %"class.Imf_3_2::DeepTiledInputFile", ptr %this1, i32 0, i32 1
  %4 = load ptr, ptr %_data3, align 8
  %tileBuffers4 = getelementptr inbounds %"struct.Imf_3_2::DeepTiledInputFile::Data", ptr %4, i32 0, i32 26
  %5 = load i64, ptr %i, align 8
  %call5 = call noundef nonnull align 8 dereferenceable(8) ptr @_ZNSt6vectorIPN7Imf_3_212_GLOBAL__N_110TileBufferESaIS3_EEixEm(ptr noundef nonnull align 8 dereferenceable(24) %tileBuffers4, i64 noundef %5) #3
  %6 = load ptr, ptr %call5, align 8
  %buffer = getelementptr inbounds %"struct.Imf_3_2::(anonymous namespace)::TileBuffer", ptr %6, i32 0, i32 2
  %7 = load ptr, ptr %buffer, align 8
  %cmp6 = icmp ne ptr %7, null
  br i1 %cmp6, label %if.then7, label %if.end

if.then7:                                         ; preds = %for.body
  %_data8 = getelementptr inbounds %"class.Imf_3_2::DeepTiledInputFile", ptr %this1, i32 0, i32 1
  %8 = load ptr, ptr %_data8, align 8
  %tileBuffers9 = getelementptr inbounds %"struct.Imf_3_2::DeepTiledInputFile::Data", ptr %8, i32 0, i32 26
  %9 = load i64, ptr %i, align 8
  %call10 = call noundef nonnull align 8 dereferenceable(8) ptr @_ZNSt6vectorIPN7Imf_3_212_GLOBAL__N_110TileBufferESaIS3_EEixEm(ptr noundef nonnull align 8 dereferenceable(24) %tileBuffers9, i64 noundef %9) #3
  %10 = load ptr, ptr %call10, align 8
  %buffer11 = getelementptr inbounds %"struct.Imf_3_2::(anonymous namespace)::TileBuffer", ptr %10, i32 0, i32 2
  %11 = load ptr, ptr %buffer11, align 8
  %isnull = icmp eq ptr %11, null
  br i1 %isnull, label %delete.end, label %delete.notnull

delete.notnull:                                   ; preds = %if.then7
  call void @_ZdaPv(ptr noundef %11) #17
  br label %delete.end

delete.end:                                       ; preds = %delete.notnull, %if.then7
  br label %if.end

if.end:                                           ; preds = %delete.end, %for.body
  br label %for.inc

for.inc:                                          ; preds = %if.end
  %12 = load i64, ptr %i, align 8
  %inc = add i64 %12, 1
  store i64 %inc, ptr %i, align 8
  br label %for.cond, !llvm.loop !9

for.end:                                          ; preds = %for.cond
  br label %if.end12

if.end12:                                         ; preds = %for.end, %entry
  %_data13 = getelementptr inbounds %"class.Imf_3_2::DeepTiledInputFile", ptr %this1, i32 0, i32 1
  %13 = load ptr, ptr %_data13, align 8
  %_deleteStream = getelementptr inbounds %"struct.Imf_3_2::DeepTiledInputFile::Data", ptr %13, i32 0, i32 40
  %14 = load i8, ptr %_deleteStream, align 8
  %tobool14 = trunc i8 %14 to i1
  br i1 %tobool14, label %if.then15, label %if.end20

if.then15:                                        ; preds = %if.end12
  %_data16 = getelementptr inbounds %"class.Imf_3_2::DeepTiledInputFile", ptr %this1, i32 0, i32 1
  %15 = load ptr, ptr %_data16, align 8
  %_streamData = getelementptr inbounds %"struct.Imf_3_2::DeepTiledInputFile::Data", ptr %15, i32 0, i32 39
  %16 = load ptr, ptr %_streamData, align 8
  %is = getelementptr inbounds %"struct.Imf_3_2::InputStreamMutex", ptr %16, i32 0, i32 1
  %17 = load ptr, ptr %is, align 8
  %isnull17 = icmp eq ptr %17, null
  br i1 %isnull17, label %delete.end19, label %delete.notnull18

delete.notnull18:                                 ; preds = %if.then15
  %vtable = load ptr, ptr %17, align 8
  %vfn = getelementptr inbounds ptr, ptr %vtable, i64 1
  %18 = load ptr, ptr %vfn, align 8
  call void %18(ptr noundef nonnull align 8 dereferenceable(40) %17) #3
  br label %delete.end19

delete.end19:                                     ; preds = %delete.notnull18, %if.then15
  br label %if.end20

if.end20:                                         ; preds = %delete.end19, %if.end12
  %_data21 = getelementptr inbounds %"class.Imf_3_2::DeepTiledInputFile", ptr %this1, i32 0, i32 1
  %19 = load ptr, ptr %_data21, align 8
  %partNumber = getelementptr inbounds %"struct.Imf_3_2::DeepTiledInputFile::Data", ptr %19, i32 0, i32 20
  %20 = load i32, ptr %partNumber, align 8
  %cmp22 = icmp eq i32 %20, -1
  br i1 %cmp22, label %if.then23, label %if.end29

if.then23:                                        ; preds = %if.end20
  %_data24 = getelementptr inbounds %"class.Imf_3_2::DeepTiledInputFile", ptr %this1, i32 0, i32 1
  %21 = load ptr, ptr %_data24, align 8
  %_streamData25 = getelementptr inbounds %"struct.Imf_3_2::DeepTiledInputFile::Data", ptr %21, i32 0, i32 39
  %22 = load ptr, ptr %_streamData25, align 8
  %isnull26 = icmp eq ptr %22, null
  br i1 %isnull26, label %delete.end28, label %delete.notnull27

delete.notnull27:                                 ; preds = %if.then23
  call void @_ZdlPv(ptr noundef %22) #17
  br label %delete.end28

delete.end28:                                     ; preds = %delete.notnull27, %if.then23
  br label %if.end29

if.end29:                                         ; preds = %delete.end28, %if.end20
  %_data30 = getelementptr inbounds %"class.Imf_3_2::DeepTiledInputFile", ptr %this1, i32 0, i32 1
  %23 = load ptr, ptr %_data30, align 8
  %isnull31 = icmp eq ptr %23, null
  br i1 %isnull31, label %delete.end33, label %delete.notnull32

delete.notnull32:                                 ; preds = %if.end29
  call void @_ZN7Imf_3_218DeepTiledInputFile4DataD1Ev(ptr noundef nonnull align 8 dereferenceable(481) %23) #3
  call void @_ZdlPv(ptr noundef %23) #17
  br label %delete.end33

delete.end33:                                     ; preds = %delete.notnull32, %if.end29
  call void @_ZN7Imf_3_216GenericInputFileD2Ev(ptr noundef nonnull align 8 dereferenceable(8) %this1) #3
  ret void
}