; Function Attrs: mustprogress nounwind uwtable
define void @_ZN7Imf_3_218DeepTiledInputFileD2Ev(ptr noundef nonnull align 8 dereferenceable(16) %this) unnamed_addr #4 align 2 {
entry:
  store ptr getelementptr inbounds ({ [4 x ptr] }, ptr @_ZTVN7Imf_3_218DeepTiledInputFileE, i64 0, i32 0, i64 2), ptr %this, align 8
  %_data = getelementptr inbounds i8, ptr %this, i64 8
  %0 = load ptr, ptr %_data, align 8
  %memoryMapped = getelementptr inbounds i8, ptr %0, i64 392
  %1 = load i8, ptr %memoryMapped, align 8
  %2 = and i8 %1, 1
  %tobool.not = icmp eq i8 %2, 0
  br i1 %tobool.not, label %for.cond.preheader, label %if.end12

for.cond.preheader:                               ; preds = %entry
  %tileBuffers10 = getelementptr inbounds i8, ptr %0, i64 368
  %tileBuffers.val11 = load ptr, ptr %tileBuffers10, align 8
  %3 = getelementptr i8, ptr %0, i64 376
  %tileBuffers.val712 = load ptr, ptr %3, align 8
  %cmp17.not = icmp eq ptr %tileBuffers.val712, %tileBuffers.val11
  br i1 %cmp17.not, label %if.end12, label %for.body

for.body:                                         ; preds = %for.cond.preheader, %for.inc
  %4 = phi ptr [ %7, %for.inc ], [ %0, %for.cond.preheader ]
  %tileBuffers.val19 = phi ptr [ %tileBuffers.val, %for.inc ], [ %tileBuffers.val11, %for.cond.preheader ]
  %i.018 = phi i64 [ %inc, %for.inc ], [ 0, %for.cond.preheader ]
  %add.ptr.i = getelementptr inbounds ptr, ptr %tileBuffers.val19, i64 %i.018
  %5 = load ptr, ptr %add.ptr.i, align 8
  %buffer = getelementptr inbounds i8, ptr %5, i64 32
  %6 = load ptr, ptr %buffer, align 8
  %cmp6.not = icmp eq ptr %6, null
  br i1 %cmp6.not, label %for.inc, label %delete.notnull

delete.notnull:                                   ; preds = %for.body
  tail call void @_ZdaPv(ptr noundef nonnull %6) #22
  %.pre = load ptr, ptr %_data, align 8
  br label %for.inc

for.inc:                                          ; preds = %for.body, %delete.notnull
  %7 = phi ptr [ %4, %for.body ], [ %.pre, %delete.notnull ]
  %inc = add nuw i64 %i.018, 1
  %tileBuffers = getelementptr inbounds i8, ptr %7, i64 368
  %tileBuffers.val = load ptr, ptr %tileBuffers, align 8
  %8 = getelementptr i8, ptr %7, i64 376
  %tileBuffers.val7 = load ptr, ptr %8, align 8
  %sub.ptr.lhs.cast.i = ptrtoint ptr %tileBuffers.val7 to i64
  %sub.ptr.rhs.cast.i = ptrtoint ptr %tileBuffers.val to i64
  %sub.ptr.sub.i = sub i64 %sub.ptr.lhs.cast.i, %sub.ptr.rhs.cast.i
  %sub.ptr.div.i = ashr exact i64 %sub.ptr.sub.i, 3
  %cmp = icmp ult i64 %inc, %sub.ptr.div.i
  br i1 %cmp, label %for.body, label %if.end12, !llvm.loop !11

if.end12:                                         ; preds = %for.inc, %for.cond.preheader, %entry
  %9 = phi ptr [ %0, %for.cond.preheader ], [ %0, %entry ], [ %7, %for.inc ]
  %_deleteStream = getelementptr inbounds i8, ptr %9, i64 480
  %10 = load i8, ptr %_deleteStream, align 8
  %11 = and i8 %10, 1
  %tobool14.not = icmp eq i8 %11, 0
  br i1 %tobool14.not, label %if.end20, label %if.then15

if.then15:                                        ; preds = %if.end12
  %_streamData = getelementptr inbounds i8, ptr %9, i64 472
  %12 = load ptr, ptr %_streamData, align 8
  %is = getelementptr inbounds i8, ptr %12, i64 40
  %13 = load ptr, ptr %is, align 8
  %isnull17 = icmp eq ptr %13, null
  br i1 %isnull17, label %if.end20, label %delete.notnull18

delete.notnull18:                                 ; preds = %if.then15
  %vtable = load ptr, ptr %13, align 8
  %vfn = getelementptr inbounds i8, ptr %vtable, i64 8
  %14 = load ptr, ptr %vfn, align 8
  tail call void %14(ptr noundef nonnull align 8 dereferenceable(40) %13) #20
  %.pre20 = load ptr, ptr %_data, align 8
  br label %if.end20

if.end20:                                         ; preds = %if.then15, %delete.notnull18, %if.end12
  %15 = phi ptr [ %9, %if.then15 ], [ %.pre20, %delete.notnull18 ], [ %9, %if.end12 ]
  %partNumber = getelementptr inbounds i8, ptr %15, i64 344
  %16 = load i32, ptr %partNumber, align 8
  %cmp22 = icmp eq i32 %16, -1
  br i1 %cmp22, label %if.then23, label %delete.notnull32

if.then23:                                        ; preds = %if.end20
  %_streamData25 = getelementptr inbounds i8, ptr %15, i64 472
  %17 = load ptr, ptr %_streamData25, align 8
  %isnull26 = icmp eq ptr %17, null
  br i1 %isnull26, label %delete.notnull32, label %if.end29

if.end29:                                         ; preds = %if.then23
  tail call void @_ZdlPv(ptr noundef nonnull %17) #22
  %.pr.pre = load ptr, ptr %_data, align 8
  %isnull31 = icmp eq ptr %.pr.pre, null
  br i1 %isnull31, label %delete.end33, label %delete.notnull32

delete.notnull32:                                 ; preds = %if.then23, %if.end20, %if.end29
  %18 = phi ptr [ %.pr.pre, %if.end29 ], [ %15, %if.end20 ], [ %15, %if.then23 ]
  tail call void @_ZN7Imf_3_218DeepTiledInputFile4DataD1Ev(ptr noundef nonnull align 8 dereferenceable(481) %18) #20
  tail call void @_ZdlPv(ptr noundef nonnull %18) #22
  br label %delete.end33

delete.end33:                                     ; preds = %delete.notnull32, %if.end29
  tail call void @_ZN7Imf_3_216GenericInputFileD2Ev(ptr noundef nonnull align 8 dereferenceable(8) %this) #20
  ret void
}